target datalayout = "e-m:e-p270:32:32-p271:32:32-p272:64:64-i64:64-i128:128-f80:128-n8:16:32:64-S128"
target triple = "x86_64-pc-linux-gnu"

%struct.regex_list = type { ptr, ptr, ptr }
%struct.text_buffer = type { ptr, i64, i64 }
%struct.node = type { i32, ptr, %union.anon }
%union.anon = type { %struct.anon }
%struct.anon = type { ptr, ptr }

@.str = private unnamed_addr constant [41 x i8] c"cli_regex2suffix: pattern can't be NULL\0A\00", align 1
@.str.1 = private unnamed_addr constant [57 x i8] c"regex_suffix: Error compiling regular expression %s: %s\0A\00", align 1
@.str.2 = private unnamed_addr constant [54 x i8] c"regex_suffix: Error compiling regular expression: %s\0A\00", align 1
@.str.3 = private unnamed_addr constant [50 x i8] c"cli_regex2suffix: unable to strdup regex.pattern\0A\00", align 1

; Function Attrs: nounwind uwtable
define i32 @cli_regex2suffix(ptr noundef %0, ptr noundef %1, ptr noundef %2, ptr noundef %3) #0 {
  %5 = alloca i32, align 4
  %6 = alloca ptr, align 8
  %7 = alloca ptr, align 8
  %8 = alloca ptr, align 8
  %9 = alloca ptr, align 8
  %10 = alloca %struct.regex_list, align 8
  %11 = alloca %struct.text_buffer, align 8
  %12 = alloca %struct.node, align 8
  %13 = alloca ptr, align 8
  %14 = alloca i64, align 8
  %15 = alloca i32, align 4
  %16 = alloca i64, align 8
  %17 = alloca ptr, align 8
  store ptr %0, ptr %6, align 8
  store ptr %1, ptr %7, align 8
  store ptr %2, ptr %8, align 8
  store ptr %3, ptr %9, align 8
  call void @llvm.memset.p0.i64(ptr align 8 %10, i8 0, i64 24, i1 false)
  call void @llvm.memset.p0.i64(ptr align 8 %11, i8 0, i64 24, i1 false)
  call void @llvm.memset.p0.i64(ptr align 8 %12, i8 0, i64 32, i1 false)
  store ptr null, ptr %13, align 8
  store i64 0, ptr %14, align 8
  %18 = load ptr, ptr %6, align 8
  %19 = icmp eq ptr null, %18
  br i1 %19, label %20, label %21

20:                                               ; preds = %4
  call void (ptr, ...) @cli_errmsg(ptr noundef @.str)
  store i32 16, ptr %15, align 4
  br label %81

21:                                               ; preds = %4
  %22 = load ptr, ptr %7, align 8
  %23 = getelementptr inbounds %struct.regex_list, ptr %10, i32 0, i32 1
  store ptr %22, ptr %23, align 8
  %24 = getelementptr inbounds %struct.regex_list, ptr %10, i32 0, i32 1
  %25 = load ptr, ptr %24, align 8
  %26 = load ptr, ptr %6, align 8
  %27 = call i32 @cli_regcomp(ptr noundef %25, ptr noundef %26, i32 noundef 1)
  store i32 %27, ptr %15, align 4
  %28 = load i32, ptr %15, align 4
  %29 = icmp ne i32 %28, 0
  br i1 %29, label %30, label %53

30:                                               ; preds = %21
  %31 = load i32, ptr %15, align 4
  %32 = getelementptr inbounds %struct.regex_list, ptr %10, i32 0, i32 1
  %33 = load ptr, ptr %32, align 8
  %34 = call i64 @cli_regerror(i32 noundef %31, ptr noundef %33, ptr noundef null, i64 noundef 0)
  store i64 %34, ptr %16, align 8
  %35 = load i64, ptr %16, align 8
  %36 = call ptr @cli_max_malloc(i64 noundef %35)
  store ptr %36, ptr %17, align 8
  %37 = load ptr, ptr %17, align 8
  %38 = icmp ne ptr %37, null
  br i1 %38, label %39, label %49

39:                                               ; preds = %30
  %40 = load i32, ptr %15, align 4
  %41 = getelementptr inbounds %struct.regex_list, ptr %10, i32 0, i32 1
  %42 = load ptr, ptr %41, align 8
  %43 = load ptr, ptr %17, align 8
  %44 = load i64, ptr %16, align 8
  %45 = call i64 @cli_regerror(i32 noundef %40, ptr noundef %42, ptr noundef %43, i64 noundef %44)
  %46 = load ptr, ptr %6, align 8
  %47 = load ptr, ptr %17, align 8
  call void (ptr, ...) @cli_errmsg(ptr noundef @.str.1, ptr noundef %46, ptr noundef %47)
  %48 = load ptr, ptr %17, align 8
  call void @free(ptr noundef %48) #7
  br label %51

49:                                               ; preds = %30
  %50 = load ptr, ptr %6, align 8
  call void (ptr, ...) @cli_errmsg(ptr noundef @.str.2, ptr noundef %50)
  br label %51

51:                                               ; preds = %49, %39
  %52 = load i32, ptr %15, align 4
  store i32 %52, ptr %5, align 4
  br label %104

53:                                               ; preds = %21
  %54 = getelementptr inbounds %struct.regex_list, ptr %10, i32 0, i32 2
  store ptr null, ptr %54, align 8
  br label %55

55:                                               ; preds = %53
  %56 = load ptr, ptr %6, align 8
  %57 = call ptr @cli_safer_strdup(ptr noundef %56)
  %58 = getelementptr inbounds %struct.regex_list, ptr %10, i32 0, i32 0
  store ptr %57, ptr %58, align 8
  %59 = getelementptr inbounds %struct.regex_list, ptr %10, i32 0, i32 0
  %60 = load ptr, ptr %59, align 8
  %61 = icmp eq ptr null, %60
  br i1 %61, label %62, label %65

62:                                               ; preds = %55
  br label %63

63:                                               ; preds = %62
  call void (ptr, ...) @cli_errmsg(ptr noundef @.str.3)
  store i32 12, ptr %15, align 4
  br label %64

64:                                               ; preds = %63
  br label %81

65:                                               ; preds = %55
  br label %66

66:                                               ; preds = %65
  %67 = load ptr, ptr %6, align 8
  %68 = load ptr, ptr %6, align 8
  %69 = call i64 @strlen(ptr noundef %68) #8
  %70 = call ptr @parse_regex(ptr noundef %67, i64 noundef %69, ptr noundef %14)
  store ptr %70, ptr %13, align 8
  %71 = load ptr, ptr %13, align 8
  %72 = icmp ne ptr %71, null
  br i1 %72, label %74, label %73

73:                                               ; preds = %66
  store i32 12, ptr %15, align 4
  br label %81

74:                                               ; preds = %66
  call void @llvm.memset.p0.i64(ptr align 8 %11, i8 0, i64 24, i1 false)
  call void @llvm.memset.p0.i64(ptr align 8 %12, i8 0, i64 32, i1 false)
  %75 = load ptr, ptr %13, align 8
  %76 = getelementptr inbounds %struct.node, ptr %75, i32 0, i32 1
  store ptr %12, ptr %76, align 8
  %77 = load ptr, ptr %13, align 8
  %78 = load ptr, ptr %8, align 8
  %79 = load ptr, ptr %9, align 8
  %80 = call i32 @build_suffixtree_descend(ptr noundef %77, ptr noundef %11, ptr noundef %78, ptr noundef %79, ptr noundef %10)
  store i32 %80, ptr %15, align 4
  br label %81

81:                                               ; preds = %74, %73, %64, %20
  br label %82

82:                                               ; preds = %81
  %83 = getelementptr inbounds %struct.regex_list, ptr %10, i32 0, i32 0
  %84 = load ptr, ptr %83, align 8
  %85 = icmp ne ptr null, %84
  br i1 %85, label %86, label %90

86:                                               ; preds = %82
  %87 = getelementptr inbounds %struct.regex_list, ptr %10, i32 0, i32 0
  %88 = load ptr, ptr %87, align 8
  call void @free(ptr noundef %88) #7
  %89 = getelementptr inbounds %struct.regex_list, ptr %10, i32 0, i32 0
  store ptr null, ptr %89, align 8
  br label %90

90:                                               ; preds = %86, %82
  br label %91

91:                                               ; preds = %90
  br label %92

92:                                               ; preds = %91
  %93 = getelementptr inbounds %struct.text_buffer, ptr %11, i32 0, i32 0
  %94 = load ptr, ptr %93, align 8
  %95 = icmp ne ptr null, %94
  br i1 %95, label %96, label %100

96:                                               ; preds = %92
  %97 = getelementptr inbounds %struct.text_buffer, ptr %11, i32 0, i32 0
  %98 = load ptr, ptr %97, align 8
  call void @free(ptr noundef %98) #7
  %99 = getelementptr inbounds %struct.text_buffer, ptr %11, i32 0, i32 0
  store ptr null, ptr %99, align 8
  br label %100

100:                                              ; preds = %96, %92
  br label %101

101:                                              ; preds = %100
  %102 = load ptr, ptr %13, align 8
  call void @destroy_tree(ptr noundef %102)
  %103 = load i32, ptr %15, align 4
  store i32 %103, ptr %5, align 4
  br label %104

104:                                              ; preds = %101, %51
  %105 = load i32, ptr %5, align 4
  ret i32 %105
}