; Function Attrs: nounwind uwtable
define i32 @cli_regex2suffix(ptr noundef %0, ptr noundef %1, ptr nocapture noundef readonly %2, ptr noundef %3) local_unnamed_addr #0 {
  %5 = alloca %struct.regex_list, align 8
  %6 = alloca %struct.text_buffer, align 8
  %7 = alloca %struct.node, align 8
  %8 = alloca i64, align 8
  call void @llvm.memset.p0.i64(ptr noundef nonnull align 8 dereferenceable(24) %5, i8 0, i64 24, i1 false)
  call void @llvm.memset.p0.i64(ptr noundef nonnull align 8 dereferenceable(24) %6, i8 0, i64 24, i1 false)
  call void @llvm.memset.p0.i64(ptr noundef nonnull align 8 dereferenceable(32) %7, i8 0, i64 32, i1 false)
  store i64 0, ptr %8, align 8
  %9 = icmp eq ptr %0, null
  br i1 %9, label %10, label %11

10:                                               ; preds = %4
  tail call void (ptr, ...) @cli_errmsg(ptr noundef nonnull @.str) #8
  br label %.thread

11:                                               ; preds = %4
  %12 = getelementptr inbounds i8, ptr %5, i64 8
  store ptr %1, ptr %12, align 8
  %13 = tail call i32 @cli_regcomp(ptr noundef %1, ptr noundef nonnull %0, i32 noundef 1) #8
  %.not = icmp eq i32 %13, 0
  br i1 %.not, label %20, label %14

14:                                               ; preds = %11
  %15 = tail call i64 @cli_regerror(i32 noundef %13, ptr noundef %1, ptr noundef null, i64 noundef 0) #8
  %16 = tail call ptr @cli_max_malloc(i64 noundef %15) #8
  %.not34 = icmp eq ptr %16, null
  br i1 %.not34, label %19, label %17

17:                                               ; preds = %14
  %18 = tail call i64 @cli_regerror(i32 noundef %13, ptr noundef %1, ptr noundef nonnull %16, i64 noundef %15) #8
  tail call void (ptr, ...) @cli_errmsg(ptr noundef nonnull @.str.1, ptr noundef nonnull %0, ptr noundef nonnull %16) #8
  tail call void @free(ptr noundef nonnull %16) #8
  br label %35

19:                                               ; preds = %14
  tail call void (ptr, ...) @cli_errmsg(ptr noundef nonnull @.str.2, ptr noundef nonnull %0) #8
  br label %35

20:                                               ; preds = %11
  %21 = getelementptr inbounds i8, ptr %5, i64 16
  store ptr null, ptr %21, align 8
  %22 = tail call ptr @cli_safer_strdup(ptr noundef nonnull %0) #8
  store ptr %22, ptr %5, align 8
  %23 = icmp eq ptr %22, null
  br i1 %23, label %24, label %25

24:                                               ; preds = %20
  tail call void (ptr, ...) @cli_errmsg(ptr noundef nonnull @.str.3) #8
  br label %.thread

25:                                               ; preds = %20
  %26 = tail call i64 @strlen(ptr noundef nonnull dereferenceable(1) %0) #9
  %27 = call fastcc ptr @parse_regex(ptr noundef nonnull %0, i64 noundef %26, ptr noundef nonnull %8)
  %.not33 = icmp eq ptr %27, null
  br i1 %.not33, label %.thread42, label %28

28:                                               ; preds = %25
  call void @llvm.memset.p0.i64(ptr noundef nonnull align 8 dereferenceable(24) %6, i8 0, i64 24, i1 false)
  call void @llvm.memset.p0.i64(ptr noundef nonnull align 8 dereferenceable(32) %7, i8 0, i64 32, i1 false)
  %29 = getelementptr inbounds i8, ptr %27, i64 8
  store ptr %7, ptr %29, align 8
  %30 = call fastcc i32 @build_suffixtree_descend(ptr noundef nonnull %27, ptr noundef nonnull %6, ptr noundef %2, ptr noundef %3, ptr noundef nonnull %5), !range !4
  %.pre = load ptr, ptr %5, align 8
  %.not35 = icmp eq ptr %.pre, null
  br i1 %.not35, label %.thread, label %.thread42

.thread42:                                        ; preds = %25, %28
  %.02646 = phi i32 [ %30, %28 ], [ 12, %25 ]
  %31 = phi ptr [ %.pre, %28 ], [ %22, %25 ]
  call void @free(ptr noundef nonnull %31) #8
  store ptr null, ptr %5, align 8
  br label %.thread

.thread:                                          ; preds = %24, %10, %.thread42, %28
  %.02541 = phi ptr [ %27, %.thread42 ], [ %27, %28 ], [ null, %10 ], [ null, %24 ]
  %.02640 = phi i32 [ %.02646, %.thread42 ], [ %30, %28 ], [ 16, %10 ], [ 12, %24 ]
  %32 = load ptr, ptr %6, align 8
  %.not36 = icmp eq ptr %32, null
  br i1 %.not36, label %34, label %33

33:                                               ; preds = %.thread
  call void @free(ptr noundef nonnull %32) #8
  br label %34

34:                                               ; preds = %.thread, %33
  call fastcc void @destroy_tree(ptr noundef %.02541)
  br label %35

35:                                               ; preds = %17, %19, %34
  %.0 = phi i32 [ %.02640, %34 ], [ %13, %19 ], [ %13, %17 ]
  ret i32 %.0
}